; Function Attrs: mustprogress uwtable
define internal fastcc { ptr, i8 } @_ZN4ofbxL9parseMeshERKNS_5SceneERKNS_7ElementE(ptr noundef nonnull align 8 dereferenceable(296) %0, ptr noundef nonnull align 8 dereferenceable(56) %1) unnamed_addr #8 personality ptr @__gxx_personality_v0 {
  %3 = getelementptr inbounds i8, ptr %1, i64 48
  %4 = load ptr, ptr %3, align 8
  %.not = icmp eq ptr %4, null
  br i1 %.not, label %_ZNK4ofbx8DataViewneEPKc.exit.thread12, label %5

5:                                                ; preds = %2
  %6 = getelementptr inbounds i8, ptr %4, i64 40
  %7 = load ptr, ptr %6, align 8
  %.not9 = icmp eq ptr %7, null
  br i1 %.not9, label %_ZNK4ofbx8DataViewneEPKc.exit.thread12, label %8

8:                                                ; preds = %5
  %9 = getelementptr inbounds i8, ptr %7, i64 40
  %10 = load ptr, ptr %9, align 8
  %.not10 = icmp eq ptr %10, null
  br i1 %.not10, label %_ZNK4ofbx8DataViewneEPKc.exit.thread12, label %11

11:                                               ; preds = %8
  %12 = getelementptr inbounds i8, ptr %10, i64 16
  %13 = load ptr, ptr %12, align 8
  %14 = getelementptr inbounds i8, ptr %10, i64 24
  %15 = load ptr, ptr %14, align 8
  %.not1420.i.i = icmp eq ptr %13, %15
  br i1 %.not1420.i.i, label %_ZNK4ofbx8DataViewneEPKc.exit.thread12, label %.lr.ph.i.i

.lr.ph.i.i:                                       ; preds = %11, %18
  %16 = phi i8 [ %21, %18 ], [ 77, %11 ]
  %.023.i.i = phi ptr [ %20, %18 ], [ %13, %11 ]
  %.01122.i.i = phi ptr [ %19, %18 ], [ @.str.36, %11 ]
  %17 = load i8, ptr %.023.i.i, align 1
  %.not15.i.i = icmp eq i8 %16, %17
  br i1 %.not15.i.i, label %18, label %_ZNK4ofbx8DataViewneEPKc.exit.thread12

18:                                               ; preds = %.lr.ph.i.i
  %19 = getelementptr inbounds i8, ptr %.01122.i.i, i64 1
  %20 = getelementptr inbounds i8, ptr %.023.i.i, i64 1
  %21 = load i8, ptr %19, align 1
  %.not.i.i = icmp eq i8 %21, 0
  %.not14.i.i = icmp eq ptr %20, %15
  %or.cond.i.i = select i1 %.not.i.i, i1 true, i1 %.not14.i.i
  br i1 %or.cond.i.i, label %_ZNK4ofbx8DataViewneEPKc.exit, label %.lr.ph.i.i, !llvm.loop !5

_ZNK4ofbx8DataViewneEPKc.exit:                    ; preds = %18
  %spec.select.i.i = and i1 %.not14.i.i, %.not.i.i
  br i1 %spec.select.i.i, label %22, label %_ZNK4ofbx8DataViewneEPKc.exit.thread12

_ZNK4ofbx8DataViewneEPKc.exit.thread12:           ; preds = %.lr.ph.i.i, %11, %_ZNK4ofbx8DataViewneEPKc.exit, %8, %5, %2
  store ptr @.str.52, ptr @_ZN4ofbx5Error9s_messageE, align 8
  br label %46

22:                                               ; preds = %_ZNK4ofbx8DataViewneEPKc.exit
  %23 = tail call noalias noundef nonnull dereferenceable(216) ptr @_Znwm(i64 noundef 216) #32
  store ptr getelementptr inbounds ({ [5 x ptr] }, ptr @_ZTVN4ofbx6ObjectE, i64 0, i32 0, i64 2), ptr %23, align 8
  %24 = getelementptr inbounds i8, ptr %23, i64 144
  store ptr %1, ptr %24, align 8
  %25 = getelementptr inbounds i8, ptr %23, i64 152
  store ptr null, ptr %25, align 8
  %26 = getelementptr inbounds i8, ptr %23, i64 160
  store i8 0, ptr %26, align 8
  %27 = getelementptr inbounds i8, ptr %23, i64 168
  store ptr %0, ptr %27, align 8
  %28 = getelementptr inbounds i8, ptr %7, i64 16
  %29 = getelementptr inbounds i8, ptr %23, i64 16
  %30 = load ptr, ptr %28, align 8
  %31 = getelementptr inbounds i8, ptr %7, i64 24
  %32 = ptrtoint ptr %29 to i64
  %33 = load ptr, ptr %31, align 8
  %.not.i.i.i.i = icmp eq ptr %30, %33
  br i1 %.not.i.i.i.i, label %.loopexit, label %.lr.ph.i.i.i.i

.lr.ph.i.i.i.i:                                   ; preds = %22, %.lr.ph.i.i.i.i
  %.012.i.i.i.i = phi ptr [ %35, %.lr.ph.i.i.i.i ], [ %30, %22 ]
  %.01011.i.i.i.i = phi ptr [ %36, %.lr.ph.i.i.i.i ], [ %29, %22 ]
  %34 = load i8, ptr %.012.i.i.i.i, align 1
  store i8 %34, ptr %.01011.i.i.i.i, align 1
  %35 = getelementptr inbounds i8, ptr %.012.i.i.i.i, i64 1
  %36 = getelementptr inbounds i8, ptr %.01011.i.i.i.i, i64 1
  %37 = load ptr, ptr %31, align 8
  %38 = icmp ne ptr %35, %37
  %39 = ptrtoint ptr %36 to i64
  %40 = sub i64 %39, %32
  %41 = icmp slt i64 %40, 127
  %42 = select i1 %38, i1 %41, i1 false
  br i1 %42, label %.lr.ph.i.i.i.i, label %.loopexit, !llvm.loop !7

.loopexit:                                        ; preds = %.lr.ph.i.i.i.i, %22
  %.010.lcssa.i.i.i.i = phi ptr [ %29, %22 ], [ %36, %.lr.ph.i.i.i.i ]
  store i8 0, ptr %.010.lcssa.i.i.i.i, align 1
  store ptr getelementptr inbounds ({ [9 x ptr] }, ptr @_ZTVN4ofbx8MeshImplE, i64 0, i32 0, i64 2), ptr %23, align 8
  %43 = getelementptr inbounds i8, ptr %23, i64 176
  store ptr null, ptr %43, align 8
  %44 = getelementptr inbounds i8, ptr %23, i64 184
  store ptr %0, ptr %44, align 8
  %45 = getelementptr inbounds i8, ptr %23, i64 192
  tail call void @llvm.memset.p0.i64(ptr noundef nonnull align 8 dereferenceable(24) %45, i8 0, i64 24, i1 false)
  store i8 1, ptr %26, align 8
  br label %46

46:                                               ; preds = %.loopexit, %_ZNK4ofbx8DataViewneEPKc.exit.thread12
  %.sroa.2.0 = phi i8 [ 1, %_ZNK4ofbx8DataViewneEPKc.exit.thread12 ], [ 0, %.loopexit ]
  %.sroa.0.0 = phi ptr [ undef, %_ZNK4ofbx8DataViewneEPKc.exit.thread12 ], [ %23, %.loopexit ]
  %.fca.0.insert = insertvalue { ptr, i8 } poison, ptr %.sroa.0.0, 0
  %.fca.1.insert = insertvalue { ptr, i8 } %.fca.0.insert, i8 %.sroa.2.0, 1
  ret { ptr, i8 } %.fca.1.insert
}